target datalayout = "e-m:e-p270:32:32-p271:32:32-p272:64:64-i64:64-i128:128-f80:128-n8:16:32:64-S128"
target triple = "x86_64-pc-linux-gnu"

%"class.std::vector.18" = type { %"struct.std::_Vector_base.19" }
%"struct.std::_Vector_base.19" = type { %"struct.std::_Vector_base<char, std::allocator<char>>::_Vector_impl" }
%"struct.std::_Vector_base<char, std::allocator<char>>::_Vector_impl" = type { %"struct.std::_Vector_base<char, std::allocator<char>>::_Vector_impl_data" }
%"struct.std::_Vector_base<char, std::allocator<char>>::_Vector_impl_data" = type { ptr, ptr, ptr }
%"class.testing::internal::MatchMatrix" = type { i64, i64, %"class.std::vector.18" }

; Function Attrs: mustprogress nounwind uwtable
define linkonce_odr noundef nonnull align 1 dereferenceable(1) ptr @_ZNSt6vectorIcSaIcEEixEm(ptr noundef nonnull align 8 dereferenceable(24) %0, i64 noundef %1) #7 comdat align 2 {
  %3 = alloca ptr, align 8
  %4 = alloca i64, align 8
  store ptr %0, ptr %3, align 8, !tbaa !104
  store i64 %1, ptr %4, align 8, !tbaa !30
  %5 = load ptr, ptr %3, align 8
  %6 = getelementptr inbounds nuw %"struct.std::_Vector_base.19", ptr %5, i32 0, i32 0
  %7 = getelementptr inbounds nuw %"struct.std::_Vector_base<char, std::allocator<char>>::_Vector_impl_data", ptr %6, i32 0, i32 0
  %8 = load ptr, ptr %7, align 8, !tbaa !106
  %9 = load i64, ptr %4, align 8, !tbaa !30
  %10 = getelementptr inbounds nuw i8, ptr %8, i64 %9
  ret ptr %10
}

; Function Attrs: mustprogress nounwind uwtable
define linkonce_odr noundef i64 @_ZNK7testing8internal11MatchMatrix10SpaceIndexEmm(ptr noundef nonnull align 8 dereferenceable(40) %0, i64 noundef %1, i64 noundef %2) #7 comdat align 2 {
  %4 = alloca ptr, align 8
  %5 = alloca i64, align 8
  %6 = alloca i64, align 8
  store ptr %0, ptr %4, align 8, !tbaa !82
  store i64 %1, ptr %5, align 8, !tbaa !30
  store i64 %2, ptr %6, align 8, !tbaa !30
  %7 = load ptr, ptr %4, align 8
  %8 = load i64, ptr %5, align 8, !tbaa !30
  %9 = getelementptr inbounds nuw %"class.testing::internal::MatchMatrix", ptr %7, i32 0, i32 1
  %10 = load i64, ptr %9, align 8, !tbaa !103
  %11 = mul i64 %8, %10
  %12 = load i64, ptr %6, align 8, !tbaa !30
  %13 = add i64 %11, %12
  ret i64 %13
}

; Function Attrs: mustprogress nounwind uwtable
define linkonce_odr noundef i64 @_ZNK7testing8internal11MatchMatrix7RhsSizeEv(ptr noundef nonnull align 8 dereferenceable(40) %0) #7 comdat align 2 {
  %2 = alloca ptr, align 8
  store ptr %0, ptr %2, align 8, !tbaa !82
  %3 = load ptr, ptr %2, align 8
  %4 = getelementptr inbounds nuw %"class.testing::internal::MatchMatrix", ptr %3, i32 0, i32 1
  %5 = load i64, ptr %4, align 8, !tbaa !103
  ret i64 %5
}

; Function Attrs: mustprogress nounwind uwtable
define linkonce_odr noundef i64 @_ZNK7testing8internal11MatchMatrix7LhsSizeEv(ptr noundef nonnull align 8 dereferenceable(40) %0) #7 comdat align 2 {
  %2 = alloca ptr, align 8
  store ptr %0, ptr %2, align 8, !tbaa !82
  %3 = load ptr, ptr %2, align 8
  %4 = getelementptr inbounds nuw %"class.testing::internal::MatchMatrix", ptr %3, i32 0, i32 0
  %5 = load i64, ptr %4, align 8, !tbaa !97
  ret i64 %5
}

; Function Attrs: mustprogress uwtable
define void @_ZN7testing8internal11MatchMatrix9RandomizeEv(ptr noundef nonnull align 8 dereferenceable(40) %0) #4 align 2 {
  %2 = alloca ptr, align 8
  %3 = alloca i64, align 8
  %4 = alloca i32, align 4
  %5 = alloca i64, align 8
  %6 = alloca ptr, align 8
  store ptr %0, ptr %2, align 8, !tbaa !82
  %7 = load ptr, ptr %2, align 8
  call void @llvm.lifetime.start.p0(i64 8, ptr %3) #3
  store i64 0, ptr %3, align 8, !tbaa !30
  br label %8

8:                                                ; preds = %33, %1
  %9 = load i64, ptr %3, align 8, !tbaa !30
  %10 = call noundef i64 @_ZNK7testing8internal11MatchMatrix7LhsSizeEv(ptr noundef nonnull align 8 dereferenceable(40) %7)
  %11 = icmp ult i64 %9, %10
  br i1 %11, label %13, label %12

12:                                               ; preds = %8
  store i32 2, ptr %4, align 4
  call void @llvm.lifetime.end.p0(i64 8, ptr %3) #3
  br label %36

13:                                               ; preds = %8
  call void @llvm.lifetime.start.p0(i64 8, ptr %5) #3
  store i64 0, ptr %5, align 8, !tbaa !30
  br label %14

14:                                               ; preds = %29, %13
  %15 = load i64, ptr %5, align 8, !tbaa !30
  %16 = call noundef i64 @_ZNK7testing8internal11MatchMatrix7RhsSizeEv(ptr noundef nonnull align 8 dereferenceable(40) %7)
  %17 = icmp ult i64 %15, %16
  br i1 %17, label %19, label %18

18:                                               ; preds = %14
  store i32 5, ptr %4, align 4
  call void @llvm.lifetime.end.p0(i64 8, ptr %5) #3
  br label %32

19:                                               ; preds = %14
  call void @llvm.lifetime.start.p0(i64 8, ptr %6) #3
  %20 = getelementptr inbounds nuw %"class.testing::internal::MatchMatrix", ptr %7, i32 0, i32 2
  %21 = load i64, ptr %3, align 8, !tbaa !30
  %22 = load i64, ptr %5, align 8, !tbaa !30
  %23 = call noundef i64 @_ZNK7testing8internal11MatchMatrix10SpaceIndexEmm(ptr noundef nonnull align 8 dereferenceable(40) %7, i64 noundef %21, i64 noundef %22)
  %24 = call noundef nonnull align 1 dereferenceable(1) ptr @_ZNSt6vectorIcSaIcEEixEm(ptr noundef nonnull align 8 dereferenceable(24) %20, i64 noundef %23) #3
  store ptr %24, ptr %6, align 8, !tbaa !12
  %25 = call i32 @rand() #3
  %26 = and i32 %25, 1
  %27 = trunc i32 %26 to i8
  %28 = load ptr, ptr %6, align 8, !tbaa !12
  store i8 %27, ptr %28, align 1, !tbaa !49
  call void @llvm.lifetime.end.p0(i64 8, ptr %6) #3
  br label %29

29:                                               ; preds = %19
  %30 = load i64, ptr %5, align 8, !tbaa !30
  %31 = add i64 %30, 1
  store i64 %31, ptr %5, align 8, !tbaa !30
  br label %14, !llvm.loop !107

32:                                               ; preds = %18
  br label %33

33:                                               ; preds = %32
  %34 = load i64, ptr %3, align 8, !tbaa !30
  %35 = add i64 %34, 1
  store i64 %35, ptr %3, align 8, !tbaa !30
  br label %8, !llvm.loop !108

36:                                               ; preds = %12
  ret void
}